; Function Attrs: mustprogress nofree norecurse nosync nounwind willreturn memory(argmem: write) uwtable
define dso_local void @_ZN20cmCMakePresetsErrors26UNRECOGNIZED_VERSION_RANGEEii(ptr dead_on_unwind noalias writable writeonly sret(%"class.std::function") align 8 captures(none) initializes((0, 32)) %0, i32 noundef %1, i32 noundef %2) local_unnamed_addr #5 personality ptr @__gxx_personality_v0 {
  %.sroa.4.0.insert.ext = zext i32 %2 to i64
  %.sroa.4.0.insert.shift = shl nuw i64 %.sroa.4.0.insert.ext, 32
  %.sroa.0.0.insert.ext = zext i32 %1 to i64
  %.sroa.0.0.insert.insert = or disjoint i64 %.sroa.4.0.insert.shift, %.sroa.0.0.insert.ext
  %4 = getelementptr inbounds nuw i8, ptr %0, i64 16
  %5 = getelementptr inbounds nuw i8, ptr %0, i64 24
  %6 = getelementptr inbounds nuw i8, ptr %0, i64 8
  store i64 0, ptr %6, align 8
  store i64 %.sroa.0.0.insert.insert, ptr %0, align 8
  store ptr @"_ZNSt17_Function_handlerIFvPKN4Json5ValueEP11cmJSONStateEZN20cmCMakePresetsErrors26UNRECOGNIZED_VERSION_RANGEEiiE3$_0E9_M_invokeERKSt9_Any_dataOS3_OS5_", ptr %5, align 8, !tbaa !231
  store ptr @"_ZNSt17_Function_handlerIFvPKN4Json5ValueEP11cmJSONStateEZN20cmCMakePresetsErrors26UNRECOGNIZED_VERSION_RANGEEiiE3$_0E10_M_managerERSt9_Any_dataRKSA_St18_Manager_operation", ptr %4, align 8, !tbaa !234
  ret void
}